target datalayout = "e-m:e-p270:32:32-p271:32:32-p272:64:64-i64:64-i128:128-f80:128-n8:16:32:64-S128"
target triple = "x86_64-pc-linux-gnu"

%struct.FT_Outline_ = type { i16, i16, ptr, ptr, ptr, i32 }

; Function Attrs: nounwind uwtable
define i32 @FT_Outline_Check(ptr noundef %0) #0 {
  %2 = alloca i32, align 4
  %3 = alloca ptr, align 8
  %4 = alloca i32, align 4
  %5 = alloca i32, align 4
  %6 = alloca i32, align 4
  %7 = alloca i32, align 4
  %8 = alloca i32, align 4
  %9 = alloca i32, align 4
  store ptr %0, ptr %3, align 8, !tbaa !212
  %10 = load ptr, ptr %3, align 8, !tbaa !212
  %11 = icmp ne ptr %10, null
  br i1 %11, label %12, label %73

12:                                               ; preds = %1
  call void @llvm.lifetime.start.p0(i64 4, ptr %4) #10
  %13 = load ptr, ptr %3, align 8, !tbaa !212
  %14 = getelementptr inbounds nuw %struct.FT_Outline_, ptr %13, i32 0, i32 1
  %15 = load i16, ptr %14, align 2, !tbaa !215
  %16 = zext i16 %15 to i32
  store i32 %16, ptr %4, align 4, !tbaa !8
  call void @llvm.lifetime.start.p0(i64 4, ptr %5) #10
  %17 = load ptr, ptr %3, align 8, !tbaa !212
  %18 = getelementptr inbounds nuw %struct.FT_Outline_, ptr %17, i32 0, i32 0
  %19 = load i16, ptr %18, align 8, !tbaa !218
  %20 = zext i16 %19 to i32
  store i32 %20, ptr %5, align 4, !tbaa !8
  call void @llvm.lifetime.start.p0(i64 4, ptr %6) #10
  call void @llvm.lifetime.start.p0(i64 4, ptr %7) #10
  call void @llvm.lifetime.start.p0(i64 4, ptr %8) #10
  br label %21

21:                                               ; preds = %12
  br label %22

22:                                               ; preds = %21
  br label %23

23:                                               ; preds = %22
  %24 = load i32, ptr %4, align 4, !tbaa !8
  %25 = icmp eq i32 %24, 0
  br i1 %25, label %26, label %30

26:                                               ; preds = %23
  %27 = load i32, ptr %5, align 4, !tbaa !8
  %28 = icmp eq i32 %27, 0
  br i1 %28, label %29, label %30

29:                                               ; preds = %26
  store i32 0, ptr %2, align 4
  store i32 1, ptr %9, align 4
  br label %71

30:                                               ; preds = %26, %23
  %31 = load i32, ptr %4, align 4, !tbaa !8
  %32 = icmp eq i32 %31, 0
  br i1 %32, label %36, label %33

33:                                               ; preds = %30
  %34 = load i32, ptr %5, align 4, !tbaa !8
  %35 = icmp eq i32 %34, 0
  br i1 %35, label %36, label %37

36:                                               ; preds = %33, %30
  store i32 4, ptr %9, align 4
  br label %71

37:                                               ; preds = %33
  store i32 -1, ptr %6, align 4, !tbaa !8
  store i32 0, ptr %8, align 4, !tbaa !8
  br label %38

38:                                               ; preds = %61, %37
  %39 = load i32, ptr %8, align 4, !tbaa !8
  %40 = load i32, ptr %5, align 4, !tbaa !8
  %41 = icmp slt i32 %39, %40
  br i1 %41, label %42, label %64

42:                                               ; preds = %38
  %43 = load ptr, ptr %3, align 8, !tbaa !212
  %44 = getelementptr inbounds nuw %struct.FT_Outline_, ptr %43, i32 0, i32 4
  %45 = load ptr, ptr %44, align 8, !tbaa !217
  %46 = load i32, ptr %8, align 4, !tbaa !8
  %47 = sext i32 %46 to i64
  %48 = getelementptr inbounds i16, ptr %45, i64 %47
  %49 = load i16, ptr %48, align 2, !tbaa !169
  %50 = zext i16 %49 to i32
  store i32 %50, ptr %7, align 4, !tbaa !8
  %51 = load i32, ptr %7, align 4, !tbaa !8
  %52 = load i32, ptr %6, align 4, !tbaa !8
  %53 = icmp sle i32 %51, %52
  br i1 %53, label %58, label %54

54:                                               ; preds = %42
  %55 = load i32, ptr %7, align 4, !tbaa !8
  %56 = load i32, ptr %4, align 4, !tbaa !8
  %57 = icmp sge i32 %55, %56
  br i1 %57, label %58, label %59

58:                                               ; preds = %54, %42
  store i32 4, ptr %9, align 4
  br label %71

59:                                               ; preds = %54
  %60 = load i32, ptr %7, align 4, !tbaa !8
  store i32 %60, ptr %6, align 4, !tbaa !8
  br label %61

61:                                               ; preds = %59
  %62 = load i32, ptr %8, align 4, !tbaa !8
  %63 = add nsw i32 %62, 1
  store i32 %63, ptr %8, align 4, !tbaa !8
  br label %38, !llvm.loop !338

64:                                               ; preds = %38
  %65 = load i32, ptr %6, align 4, !tbaa !8
  %66 = load i32, ptr %4, align 4, !tbaa !8
  %67 = sub nsw i32 %66, 1
  %68 = icmp ne i32 %65, %67
  br i1 %68, label %69, label %70

69:                                               ; preds = %64
  store i32 4, ptr %9, align 4
  br label %71

70:                                               ; preds = %64
  store i32 0, ptr %2, align 4
  store i32 1, ptr %9, align 4
  br label %71

71:                                               ; preds = %69, %58, %36, %70, %29
  call void @llvm.lifetime.end.p0(i64 4, ptr %8) #10
  call void @llvm.lifetime.end.p0(i64 4, ptr %7) #10
  call void @llvm.lifetime.end.p0(i64 4, ptr %6) #10
  call void @llvm.lifetime.end.p0(i64 4, ptr %5) #10
  call void @llvm.lifetime.end.p0(i64 4, ptr %4) #10
  %72 = load i32, ptr %9, align 4
  switch i32 %72, label %77 [
    i32 1, label %75
    i32 4, label %74
  ]

73:                                               ; preds = %1
  br label %74

74:                                               ; preds = %73, %71
  store i32 20, ptr %2, align 4
  br label %75

75:                                               ; preds = %74, %71
  %76 = load i32, ptr %2, align 4
  ret i32 %76

77:                                               ; preds = %71
  unreachable
}