; Function Attrs: nofree norecurse nosync nounwind memory(read, inaccessiblemem: none) uwtable
define range(i32 0, 21) i32 @FT_Outline_Check(ptr noundef readonly %0) local_unnamed_addr #21 {
  %.not = icmp eq ptr %0, null
  br i1 %.not, label %.thread, label %2

2:                                                ; preds = %1
  %3 = getelementptr inbounds nuw i8, ptr %0, i64 2
  %4 = load i16, ptr %3, align 2, !tbaa !129
  %5 = zext i16 %4 to i32
  %6 = load i16, ptr %0, align 8, !tbaa !130
  %7 = icmp eq i16 %4, 0
  %8 = icmp eq i16 %6, 0
  %or.cond = select i1 %7, i1 %8, i1 false
  br i1 %or.cond, label %.thread37, label %9

9:                                                ; preds = %2
  %or.cond3 = select i1 %7, i1 true, i1 %8
  br i1 %or.cond3, label %.thread, label %.preheader

.preheader:                                       ; preds = %9
  %10 = getelementptr inbounds nuw i8, ptr %0, i64 24
  %11 = load ptr, ptr %10, align 8, !tbaa !131
  %wide.trip.count = zext i16 %6 to i64
  br label %13

12:                                               ; preds = %13
  %indvars.iv.next = add nuw nsw i64 %indvars.iv, 1
  %exitcond.not = icmp eq i64 %indvars.iv.next, %wide.trip.count
  br i1 %exitcond.not, label %17, label %13, !llvm.loop !132

13:                                               ; preds = %.preheader, %12
  %indvars.iv = phi i64 [ 0, %.preheader ], [ %indvars.iv.next, %12 ]
  %.02542 = phi i32 [ -1, %.preheader ], [ %16, %12 ]
  %14 = getelementptr inbounds nuw i16, ptr %11, i64 %indvars.iv
  %15 = load i16, ptr %14, align 2, !tbaa !133
  %16 = zext i16 %15 to i32
  %.not31 = icmp slt i32 %.02542, %16
  %.not32 = icmp ult i16 %15, %4
  %or.cond33 = and i1 %.not32, %.not31
  br i1 %or.cond33, label %12, label %.thread

17:                                               ; preds = %12
  %18 = add nsw i32 %5, -1
  %.not30 = icmp eq i32 %18, %16
  br i1 %.not30, label %.thread37, label %.thread

.thread:                                          ; preds = %13, %9, %17, %1
  br label %.thread37

.thread37:                                        ; preds = %2, %17, %.thread
  %.1 = phi i32 [ 20, %.thread ], [ 0, %17 ], [ 0, %2 ]
  ret i32 %.1
}